; Function Attrs: mustprogress uwtable
define hidden void @_ZNK4cvc58internal9BitVector10signExtendEj(ptr dead_on_unwind noalias writable sret(%"class.cvc5::internal::BitVector") align 8 %0, ptr noundef nonnull align 8 dereferenceable(24) %1, i32 noundef %2) local_unnamed_addr #3 align 2 personality ptr @__gxx_personality_v0 {
  %4 = alloca %"class.cvc5::internal::Integer", align 8
  %5 = alloca %"class.cvc5::internal::Integer", align 8
  %6 = alloca %"class.cvc5::internal::Integer", align 8
  call void @llvm.lifetime.start.p0(i64 16, ptr nonnull %4) #16
  %7 = getelementptr inbounds nuw i8, ptr %1, i64 8
  %8 = load i32, ptr %1, align 8, !tbaa !11
  %9 = add i32 %8, -1
  call void @_ZNK4cvc58internal7Integer15extractBitRangeEjj(ptr dead_on_unwind nonnull writable sret(%"class.cvc5::internal::Integer") align 8 %4, ptr noundef nonnull align 8 dereferenceable(16) %7, i32 noundef 1, i32 noundef %9)
  call void @llvm.lifetime.start.p0(i64 16, ptr nonnull %5) #16
  call void @__gmpz_init(ptr noundef nonnull align 8 dereferenceable(16) %5) #16
  %10 = invoke noundef zeroext i1 @_ZNK4cvc58internal7IntegereqERKS1_(ptr noundef nonnull align 8 dereferenceable(16) %4, ptr noundef nonnull align 8 dereferenceable(16) %5)
          to label %11 unwind label %19

11:                                               ; preds = %3
  invoke void @__gmpz_clear(ptr noundef nonnull align 8 dereferenceable(16) %5)
          to label %_ZN4cvc58internal7IntegerD2Ev.exit unwind label %12

12:                                               ; preds = %11
  %13 = landingpad { ptr, i32 }
          catch ptr null
  %14 = extractvalue { ptr, i32 } %13, 0
  call void @__clang_call_terminate(ptr %14) #17
  unreachable

_ZN4cvc58internal7IntegerD2Ev.exit:               ; preds = %11
  call void @llvm.lifetime.end.p0(i64 16, ptr nonnull %5) #16
  br i1 %10, label %15, label %26

15:                                               ; preds = %_ZN4cvc58internal7IntegerD2Ev.exit
  %16 = load i32, ptr %1, align 8, !tbaa !11
  %17 = add i32 %16, %2
  store i32 %17, ptr %0, align 8, !tbaa !11
  %18 = getelementptr inbounds nuw i8, ptr %0, i64 8
  invoke void @_ZNK4cvc58internal7Integer9modByPow2Ej(ptr dead_on_unwind nonnull writable sret(%"class.cvc5::internal::Integer") align 8 %18, ptr noundef nonnull align 8 dereferenceable(16) %7, i32 noundef %17)
          to label %_ZN4cvc58internal9BitVectorC2EjRKNS0_7IntegerE.exit unwind label %24

19:                                               ; preds = %3
  %20 = landingpad { ptr, i32 }
          cleanup
  invoke void @__gmpz_clear(ptr noundef nonnull align 8 dereferenceable(16) %5)
          to label %_ZN4cvc58internal7IntegerD2Ev.exit13 unwind label %21

21:                                               ; preds = %19
  %22 = landingpad { ptr, i32 }
          catch ptr null
  %23 = extractvalue { ptr, i32 } %22, 0
  call void @__clang_call_terminate(ptr %23) #17
  unreachable

_ZN4cvc58internal7IntegerD2Ev.exit13:             ; preds = %19
  call void @llvm.lifetime.end.p0(i64 16, ptr nonnull %5) #16
  br label %45

24:                                               ; preds = %15
  %25 = landingpad { ptr, i32 }
          cleanup
  br label %45

26:                                               ; preds = %_ZN4cvc58internal7IntegerD2Ev.exit
  call void @llvm.lifetime.start.p0(i64 16, ptr nonnull %6) #16
  %27 = load i32, ptr %1, align 8, !tbaa !11
  invoke void @_ZNK4cvc58internal7Integer9oneExtendEjj(ptr dead_on_unwind nonnull writable sret(%"class.cvc5::internal::Integer") align 8 %6, ptr noundef nonnull align 8 dereferenceable(16) %7, i32 noundef %27, i32 noundef %2)
          to label %28 unwind label %35

28:                                               ; preds = %26
  %29 = load i32, ptr %1, align 8, !tbaa !11
  %30 = add i32 %29, %2
  store i32 %30, ptr %0, align 8, !tbaa !11
  %31 = getelementptr inbounds nuw i8, ptr %0, i64 8
  invoke void @_ZNK4cvc58internal7Integer9modByPow2Ej(ptr dead_on_unwind nonnull writable sret(%"class.cvc5::internal::Integer") align 8 %31, ptr noundef nonnull align 8 dereferenceable(16) %6, i32 noundef %30)
          to label %_ZN4cvc58internal9BitVectorC2EjRKNS0_7IntegerE.exit14 unwind label %37

_ZN4cvc58internal9BitVectorC2EjRKNS0_7IntegerE.exit14: ; preds = %28
  invoke void @__gmpz_clear(ptr noundef nonnull align 8 dereferenceable(16) %6)
          to label %_ZN4cvc58internal7IntegerD2Ev.exit15 unwind label %32

32:                                               ; preds = %_ZN4cvc58internal9BitVectorC2EjRKNS0_7IntegerE.exit14
  %33 = landingpad { ptr, i32 }
          catch ptr null
  %34 = extractvalue { ptr, i32 } %33, 0
  call void @__clang_call_terminate(ptr %34) #17
  unreachable

_ZN4cvc58internal7IntegerD2Ev.exit15:             ; preds = %_ZN4cvc58internal9BitVectorC2EjRKNS0_7IntegerE.exit14
  call void @llvm.lifetime.end.p0(i64 16, ptr nonnull %6) #16
  br label %_ZN4cvc58internal9BitVectorC2EjRKNS0_7IntegerE.exit

35:                                               ; preds = %26
  %36 = landingpad { ptr, i32 }
          cleanup
  br label %_ZN4cvc58internal7IntegerD2Ev.exit16

37:                                               ; preds = %28
  %38 = landingpad { ptr, i32 }
          cleanup
  invoke void @__gmpz_clear(ptr noundef nonnull align 8 dereferenceable(16) %6)
          to label %_ZN4cvc58internal7IntegerD2Ev.exit16 unwind label %39

39:                                               ; preds = %37
  %40 = landingpad { ptr, i32 }
          catch ptr null
  %41 = extractvalue { ptr, i32 } %40, 0
  call void @__clang_call_terminate(ptr %41) #17
  unreachable

_ZN4cvc58internal7IntegerD2Ev.exit16:             ; preds = %37, %35
  %.pn9 = phi { ptr, i32 } [ %36, %35 ], [ %38, %37 ]
  call void @llvm.lifetime.end.p0(i64 16, ptr nonnull %6) #16
  br label %45

_ZN4cvc58internal9BitVectorC2EjRKNS0_7IntegerE.exit: ; preds = %15, %_ZN4cvc58internal7IntegerD2Ev.exit15
  invoke void @__gmpz_clear(ptr noundef nonnull align 8 dereferenceable(16) %4)
          to label %_ZN4cvc58internal7IntegerD2Ev.exit17 unwind label %42

42:                                               ; preds = %_ZN4cvc58internal9BitVectorC2EjRKNS0_7IntegerE.exit
  %43 = landingpad { ptr, i32 }
          catch ptr null
  %44 = extractvalue { ptr, i32 } %43, 0
  call void @__clang_call_terminate(ptr %44) #17
  unreachable

_ZN4cvc58internal7IntegerD2Ev.exit17:             ; preds = %_ZN4cvc58internal9BitVectorC2EjRKNS0_7IntegerE.exit
  call void @llvm.lifetime.end.p0(i64 16, ptr nonnull %4) #16
  ret void

45:                                               ; preds = %_ZN4cvc58internal7IntegerD2Ev.exit16, %24, %_ZN4cvc58internal7IntegerD2Ev.exit13
  %.pn11 = phi { ptr, i32 } [ %25, %24 ], [ %.pn9, %_ZN4cvc58internal7IntegerD2Ev.exit16 ], [ %20, %_ZN4cvc58internal7IntegerD2Ev.exit13 ]
  invoke void @__gmpz_clear(ptr noundef nonnull align 8 dereferenceable(16) %4)
          to label %_ZN4cvc58internal7IntegerD2Ev.exit18 unwind label %46

46:                                               ; preds = %45
  %47 = landingpad { ptr, i32 }
          catch ptr null
  %48 = extractvalue { ptr, i32 } %47, 0
  call void @__clang_call_terminate(ptr %48) #17
  unreachable

_ZN4cvc58internal7IntegerD2Ev.exit18:             ; preds = %45
  call void @llvm.lifetime.end.p0(i64 16, ptr nonnull %4) #16
  resume { ptr, i32 } %.pn11
}